target datalayout = "e-m:e-p270:32:32-p271:32:32-p272:64:64-i64:64-i128:128-f80:128-n8:16:32:64-S128"
target triple = "x86_64-pc-linux-gnu"

%"class.tinyxml2::StrPair" = type { i32, ptr, ptr }
%"class.tinyxml2::XMLDocument" = type { %"class.tinyxml2::XMLNode", i8, i8, i32, i32, %"class.tinyxml2::StrPair", i32, ptr, i32, i32, %"class.tinyxml2::DynArray", %"class.tinyxml2::MemPoolT", %"class.tinyxml2::MemPoolT.1", %"class.tinyxml2::MemPoolT.3", %"class.tinyxml2::MemPoolT.5" }
%"class.tinyxml2::XMLNode" = type { ptr, ptr, ptr, %"class.tinyxml2::StrPair", i32, ptr, ptr, ptr, ptr, ptr, ptr }
%"class.tinyxml2::DynArray" = type { ptr, [10 x ptr], i32, i32 }
%"class.tinyxml2::MemPoolT" = type { %"class.tinyxml2::MemPool", %"class.tinyxml2::DynArray.0", ptr, i32, i32, i32, i32 }
%"class.tinyxml2::MemPool" = type { ptr }
%"class.tinyxml2::DynArray.0" = type { ptr, [10 x ptr], i32, i32 }
%"class.tinyxml2::MemPoolT.1" = type { %"class.tinyxml2::MemPool", %"class.tinyxml2::DynArray.2", ptr, i32, i32, i32, i32 }
%"class.tinyxml2::DynArray.2" = type { ptr, [10 x ptr], i32, i32 }
%"class.tinyxml2::MemPoolT.3" = type { %"class.tinyxml2::MemPool", %"class.tinyxml2::DynArray.4", ptr, i32, i32, i32, i32 }
%"class.tinyxml2::DynArray.4" = type { ptr, [10 x ptr], i32, i32 }
%"class.tinyxml2::MemPoolT.5" = type { %"class.tinyxml2::MemPool", %"class.tinyxml2::DynArray.6", ptr, i32, i32, i32, i32 }
%"class.tinyxml2::DynArray.6" = type { ptr, [10 x ptr], i32, i32 }

; Function Attrs: mustprogress nounwind uwtable
define linkonce_odr hidden void @_ZN8tinyxml28DynArrayIPNS_7XMLNodeELi10EE10SwapRemoveEi(ptr noundef nonnull align 8 dereferenceable(96) %0, i32 noundef %1) #0 comdat align 2 {
  %3 = alloca ptr, align 8
  %4 = alloca i32, align 4
  store ptr %0, ptr %3, align 8, !tbaa !170
  store i32 %1, ptr %4, align 4, !tbaa !15
  %5 = load ptr, ptr %3, align 8
  %6 = getelementptr inbounds nuw %"class.tinyxml2::DynArray", ptr %5, i32 0, i32 0
  %7 = load ptr, ptr %6, align 8, !tbaa !172
  %8 = getelementptr inbounds nuw %"class.tinyxml2::DynArray", ptr %5, i32 0, i32 3
  %9 = load i32, ptr %8, align 4, !tbaa !174
  %10 = sub nsw i32 %9, 1
  %11 = sext i32 %10 to i64
  %12 = getelementptr inbounds ptr, ptr %7, i64 %11
  %13 = load ptr, ptr %12, align 8, !tbaa !85
  %14 = getelementptr inbounds nuw %"class.tinyxml2::DynArray", ptr %5, i32 0, i32 0
  %15 = load ptr, ptr %14, align 8, !tbaa !172
  %16 = load i32, ptr %4, align 4, !tbaa !15
  %17 = sext i32 %16 to i64
  %18 = getelementptr inbounds ptr, ptr %15, i64 %17
  store ptr %13, ptr %18, align 8, !tbaa !85
  %19 = getelementptr inbounds nuw %"class.tinyxml2::DynArray", ptr %5, i32 0, i32 3
  %20 = load i32, ptr %19, align 4, !tbaa !174
  %21 = add nsw i32 %20, -1
  store i32 %21, ptr %19, align 4, !tbaa !174
  ret void
}

; Function Attrs: mustprogress nounwind uwtable
define linkonce_odr hidden noundef nonnull align 8 dereferenceable(8) ptr @_ZN8tinyxml28DynArrayIPNS_7XMLNodeELi10EEixEi(ptr noundef nonnull align 8 dereferenceable(96) %0, i32 noundef %1) #0 comdat align 2 {
  %3 = alloca ptr, align 8
  %4 = alloca i32, align 4
  store ptr %0, ptr %3, align 8, !tbaa !170
  store i32 %1, ptr %4, align 4, !tbaa !15
  %5 = load ptr, ptr %3, align 8
  %6 = getelementptr inbounds nuw %"class.tinyxml2::DynArray", ptr %5, i32 0, i32 0
  %7 = load ptr, ptr %6, align 8, !tbaa !172
  %8 = load i32, ptr %4, align 4, !tbaa !15
  %9 = sext i32 %8 to i64
  %10 = getelementptr inbounds ptr, ptr %7, i64 %9
  ret ptr %10
}

; Function Attrs: mustprogress nounwind uwtable
define linkonce_odr hidden noundef i32 @_ZNK8tinyxml28DynArrayIPNS_7XMLNodeELi10EE4SizeEv(ptr noundef nonnull align 8 dereferenceable(96) %0) #0 comdat align 2 {
  %2 = alloca ptr, align 8
  store ptr %0, ptr %2, align 8, !tbaa !170
  %3 = load ptr, ptr %2, align 8
  %4 = getelementptr inbounds nuw %"class.tinyxml2::DynArray", ptr %3, i32 0, i32 3
  %5 = load i32, ptr %4, align 4, !tbaa !174
  ret i32 %5
}

; Function Attrs: mustprogress uwtable
define void @_ZN8tinyxml211XMLDocument9MarkInUseEPKNS_7XMLNodeE(ptr noundef nonnull align 8 dereferenceable(776) %0, ptr noundef %1) #2 align 2 {
  %3 = alloca ptr, align 8
  %4 = alloca ptr, align 8
  %5 = alloca i32, align 4
  %6 = alloca i32, align 4
  store ptr %0, ptr %3, align 8, !tbaa !56
  store ptr %1, ptr %4, align 8, !tbaa !85
  %7 = load ptr, ptr %3, align 8
  call void @llvm.lifetime.start.p0(i64 4, ptr %5) #18
  store i32 0, ptr %5, align 4, !tbaa !15
  br label %8

8:                                                ; preds = %25, %2
  %9 = load i32, ptr %5, align 4, !tbaa !15
  %10 = getelementptr inbounds nuw %"class.tinyxml2::XMLDocument", ptr %7, i32 0, i32 10
  %11 = call noundef i32 @_ZNK8tinyxml28DynArrayIPNS_7XMLNodeELi10EE4SizeEv(ptr noundef nonnull align 8 dereferenceable(96) %10)
  %12 = icmp slt i32 %9, %11
  br i1 %12, label %14, label %13

13:                                               ; preds = %8
  store i32 2, ptr %6, align 4
  br label %28

14:                                               ; preds = %8
  %15 = load ptr, ptr %4, align 8, !tbaa !85
  %16 = getelementptr inbounds nuw %"class.tinyxml2::XMLDocument", ptr %7, i32 0, i32 10
  %17 = load i32, ptr %5, align 4, !tbaa !15
  %18 = call noundef nonnull align 8 dereferenceable(8) ptr @_ZN8tinyxml28DynArrayIPNS_7XMLNodeELi10EEixEi(ptr noundef nonnull align 8 dereferenceable(96) %16, i32 noundef %17)
  %19 = load ptr, ptr %18, align 8, !tbaa !85
  %20 = icmp eq ptr %15, %19
  br i1 %20, label %21, label %24

21:                                               ; preds = %14
  %22 = getelementptr inbounds nuw %"class.tinyxml2::XMLDocument", ptr %7, i32 0, i32 10
  %23 = load i32, ptr %5, align 4, !tbaa !15
  call void @_ZN8tinyxml28DynArrayIPNS_7XMLNodeELi10EE10SwapRemoveEi(ptr noundef nonnull align 8 dereferenceable(96) %22, i32 noundef %23)
  store i32 2, ptr %6, align 4
  br label %28

24:                                               ; preds = %14
  br label %25

25:                                               ; preds = %24
  %26 = load i32, ptr %5, align 4, !tbaa !15
  %27 = add nsw i32 %26, 1
  store i32 %27, ptr %5, align 4, !tbaa !15
  br label %8, !llvm.loop !137

28:                                               ; preds = %21, %13
  call void @llvm.lifetime.end.p0(i64 4, ptr %5) #18
  br label %29

29:                                               ; preds = %28
  ret void
}

; Function Attrs: mustprogress nounwind uwtable
define void @_ZN8tinyxml27XMLNode6UnlinkEPS0_(ptr noundef nonnull align 8 dereferenceable(104) %0, ptr noundef %1) #0 align 2 {
  %3 = alloca ptr, align 8
  %4 = alloca ptr, align 8
  store ptr %0, ptr %3, align 8, !tbaa !85
  store ptr %1, ptr %4, align 8, !tbaa !85
  %5 = load ptr, ptr %3, align 8
  %6 = load ptr, ptr %4, align 8, !tbaa !85
  %7 = getelementptr inbounds nuw %"class.tinyxml2::XMLNode", ptr %5, i32 0, i32 5
  %8 = load ptr, ptr %7, align 8, !tbaa !111
  %9 = icmp eq ptr %6, %8
  br i1 %9, label %10, label %16

10:                                               ; preds = %2
  %11 = getelementptr inbounds nuw %"class.tinyxml2::XMLNode", ptr %5, i32 0, i32 5
  %12 = load ptr, ptr %11, align 8, !tbaa !111
  %13 = getelementptr inbounds nuw %"class.tinyxml2::XMLNode", ptr %12, i32 0, i32 8
  %14 = load ptr, ptr %13, align 8, !tbaa !112
  %15 = getelementptr inbounds nuw %"class.tinyxml2::XMLNode", ptr %5, i32 0, i32 5
  store ptr %14, ptr %15, align 8, !tbaa !111
  br label %16

16:                                               ; preds = %10, %2
  %17 = load ptr, ptr %4, align 8, !tbaa !85
  %18 = getelementptr inbounds nuw %"class.tinyxml2::XMLNode", ptr %5, i32 0, i32 6
  %19 = load ptr, ptr %18, align 8, !tbaa !115
  %20 = icmp eq ptr %17, %19
  br i1 %20, label %21, label %27

21:                                               ; preds = %16
  %22 = getelementptr inbounds nuw %"class.tinyxml2::XMLNode", ptr %5, i32 0, i32 6
  %23 = load ptr, ptr %22, align 8, !tbaa !115
  %24 = getelementptr inbounds nuw %"class.tinyxml2::XMLNode", ptr %23, i32 0, i32 7
  %25 = load ptr, ptr %24, align 8, !tbaa !116
  %26 = getelementptr inbounds nuw %"class.tinyxml2::XMLNode", ptr %5, i32 0, i32 6
  store ptr %25, ptr %26, align 8, !tbaa !115
  br label %27

27:                                               ; preds = %21, %16
  %28 = load ptr, ptr %4, align 8, !tbaa !85
  %29 = getelementptr inbounds nuw %"class.tinyxml2::XMLNode", ptr %28, i32 0, i32 7
  %30 = load ptr, ptr %29, align 8, !tbaa !116
  %31 = icmp ne ptr %30, null
  br i1 %31, label %32, label %40

32:                                               ; preds = %27
  %33 = load ptr, ptr %4, align 8, !tbaa !85
  %34 = getelementptr inbounds nuw %"class.tinyxml2::XMLNode", ptr %33, i32 0, i32 8
  %35 = load ptr, ptr %34, align 8, !tbaa !112
  %36 = load ptr, ptr %4, align 8, !tbaa !85
  %37 = getelementptr inbounds nuw %"class.tinyxml2::XMLNode", ptr %36, i32 0, i32 7
  %38 = load ptr, ptr %37, align 8, !tbaa !116
  %39 = getelementptr inbounds nuw %"class.tinyxml2::XMLNode", ptr %38, i32 0, i32 8
  store ptr %35, ptr %39, align 8, !tbaa !112
  br label %40

40:                                               ; preds = %32, %27
  %41 = load ptr, ptr %4, align 8, !tbaa !85
  %42 = getelementptr inbounds nuw %"class.tinyxml2::XMLNode", ptr %41, i32 0, i32 8
  %43 = load ptr, ptr %42, align 8, !tbaa !112
  %44 = icmp ne ptr %43, null
  br i1 %44, label %45, label %53

45:                                               ; preds = %40
  %46 = load ptr, ptr %4, align 8, !tbaa !85
  %47 = getelementptr inbounds nuw %"class.tinyxml2::XMLNode", ptr %46, i32 0, i32 7
  %48 = load ptr, ptr %47, align 8, !tbaa !116
  %49 = load ptr, ptr %4, align 8, !tbaa !85
  %50 = getelementptr inbounds nuw %"class.tinyxml2::XMLNode", ptr %49, i32 0, i32 8
  %51 = load ptr, ptr %50, align 8, !tbaa !112
  %52 = getelementptr inbounds nuw %"class.tinyxml2::XMLNode", ptr %51, i32 0, i32 7
  store ptr %48, ptr %52, align 8, !tbaa !116
  br label %53

53:                                               ; preds = %45, %40
  %54 = load ptr, ptr %4, align 8, !tbaa !85
  %55 = getelementptr inbounds nuw %"class.tinyxml2::XMLNode", ptr %54, i32 0, i32 8
  store ptr null, ptr %55, align 8, !tbaa !112
  %56 = load ptr, ptr %4, align 8, !tbaa !85
  %57 = getelementptr inbounds nuw %"class.tinyxml2::XMLNode", ptr %56, i32 0, i32 7
  store ptr null, ptr %57, align 8, !tbaa !116
  %58 = load ptr, ptr %4, align 8, !tbaa !85
  %59 = getelementptr inbounds nuw %"class.tinyxml2::XMLNode", ptr %58, i32 0, i32 2
  store ptr null, ptr %59, align 8, !tbaa !114
  ret void
}

; Function Attrs: mustprogress uwtable
define void @_ZNK8tinyxml27XMLNode19InsertChildPreambleEPS0_(ptr noundef nonnull align 8 dereferenceable(104) %0, ptr noundef %1) #2 align 2 {
  %3 = alloca ptr, align 8
  %4 = alloca ptr, align 8
  store ptr %0, ptr %3, align 8, !tbaa !85
  store ptr %1, ptr %4, align 8, !tbaa !85
  %5 = load ptr, ptr %4, align 8, !tbaa !85
  %6 = getelementptr inbounds nuw %"class.tinyxml2::XMLNode", ptr %5, i32 0, i32 2
  %7 = load ptr, ptr %6, align 8, !tbaa !114
  %8 = icmp ne ptr %7, null
  br i1 %8, label %9, label %14

9:                                                ; preds = %2
  %10 = load ptr, ptr %4, align 8, !tbaa !85
  %11 = getelementptr inbounds nuw %"class.tinyxml2::XMLNode", ptr %10, i32 0, i32 2
  %12 = load ptr, ptr %11, align 8, !tbaa !114
  %13 = load ptr, ptr %4, align 8, !tbaa !85
  call void @_ZN8tinyxml27XMLNode6UnlinkEPS0_(ptr noundef nonnull align 8 dereferenceable(104) %12, ptr noundef %13)
  br label %25

14:                                               ; preds = %2
  %15 = load ptr, ptr %4, align 8, !tbaa !85
  %16 = getelementptr inbounds nuw %"class.tinyxml2::XMLNode", ptr %15, i32 0, i32 1
  %17 = load ptr, ptr %16, align 8, !tbaa !113
  %18 = load ptr, ptr %4, align 8, !tbaa !85
  call void @_ZN8tinyxml211XMLDocument9MarkInUseEPKNS_7XMLNodeE(ptr noundef nonnull align 8 dereferenceable(776) %17, ptr noundef %18)
  %19 = load ptr, ptr %4, align 8, !tbaa !85
  %20 = getelementptr inbounds nuw %"class.tinyxml2::XMLNode", ptr %19, i32 0, i32 10
  %21 = load ptr, ptr %20, align 8, !tbaa !95
  %22 = load ptr, ptr %21, align 8, !tbaa !91
  %23 = getelementptr inbounds ptr, ptr %22, i64 5
  %24 = load ptr, ptr %23, align 8
  call void %24(ptr noundef nonnull align 8 dereferenceable(8) %21)
  br label %25

25:                                               ; preds = %14, %9
  ret void
}

; Function Attrs: mustprogress uwtable
define noundef ptr @_ZN8tinyxml27XMLNode14InsertEndChildEPS0_(ptr noundef nonnull align 8 dereferenceable(104) %0, ptr noundef %1) #2 align 2 {
  %3 = alloca ptr, align 8
  %4 = alloca ptr, align 8
  %5 = alloca ptr, align 8
  store ptr %0, ptr %4, align 8, !tbaa !85
  store ptr %1, ptr %5, align 8, !tbaa !85
  %6 = load ptr, ptr %4, align 8
  %7 = load ptr, ptr %5, align 8, !tbaa !85
  %8 = getelementptr inbounds nuw %"class.tinyxml2::XMLNode", ptr %7, i32 0, i32 1
  %9 = load ptr, ptr %8, align 8, !tbaa !113
  %10 = getelementptr inbounds nuw %"class.tinyxml2::XMLNode", ptr %6, i32 0, i32 1
  %11 = load ptr, ptr %10, align 8, !tbaa !113
  %12 = icmp ne ptr %9, %11
  br i1 %12, label %13, label %14

13:                                               ; preds = %2
  store ptr null, ptr %3, align 8
  br label %44

14:                                               ; preds = %2
  %15 = load ptr, ptr %5, align 8, !tbaa !85
  call void @_ZNK8tinyxml27XMLNode19InsertChildPreambleEPS0_(ptr noundef nonnull align 8 dereferenceable(104) %6, ptr noundef %15)
  %16 = getelementptr inbounds nuw %"class.tinyxml2::XMLNode", ptr %6, i32 0, i32 6
  %17 = load ptr, ptr %16, align 8, !tbaa !115
  %18 = icmp ne ptr %17, null
  br i1 %18, label %19, label %32

19:                                               ; preds = %14
  %20 = load ptr, ptr %5, align 8, !tbaa !85
  %21 = getelementptr inbounds nuw %"class.tinyxml2::XMLNode", ptr %6, i32 0, i32 6
  %22 = load ptr, ptr %21, align 8, !tbaa !115
  %23 = getelementptr inbounds nuw %"class.tinyxml2::XMLNode", ptr %22, i32 0, i32 8
  store ptr %20, ptr %23, align 8, !tbaa !112
  %24 = getelementptr inbounds nuw %"class.tinyxml2::XMLNode", ptr %6, i32 0, i32 6
  %25 = load ptr, ptr %24, align 8, !tbaa !115
  %26 = load ptr, ptr %5, align 8, !tbaa !85
  %27 = getelementptr inbounds nuw %"class.tinyxml2::XMLNode", ptr %26, i32 0, i32 7
  store ptr %25, ptr %27, align 8, !tbaa !116
  %28 = load ptr, ptr %5, align 8, !tbaa !85
  %29 = getelementptr inbounds nuw %"class.tinyxml2::XMLNode", ptr %6, i32 0, i32 6
  store ptr %28, ptr %29, align 8, !tbaa !115
  %30 = load ptr, ptr %5, align 8, !tbaa !85
  %31 = getelementptr inbounds nuw %"class.tinyxml2::XMLNode", ptr %30, i32 0, i32 8
  store ptr null, ptr %31, align 8, !tbaa !112
  br label %40

32:                                               ; preds = %14
  %33 = load ptr, ptr %5, align 8, !tbaa !85
  %34 = getelementptr inbounds nuw %"class.tinyxml2::XMLNode", ptr %6, i32 0, i32 6
  store ptr %33, ptr %34, align 8, !tbaa !115
  %35 = getelementptr inbounds nuw %"class.tinyxml2::XMLNode", ptr %6, i32 0, i32 5
  store ptr %33, ptr %35, align 8, !tbaa !111
  %36 = load ptr, ptr %5, align 8, !tbaa !85
  %37 = getelementptr inbounds nuw %"class.tinyxml2::XMLNode", ptr %36, i32 0, i32 7
  store ptr null, ptr %37, align 8, !tbaa !116
  %38 = load ptr, ptr %5, align 8, !tbaa !85
  %39 = getelementptr inbounds nuw %"class.tinyxml2::XMLNode", ptr %38, i32 0, i32 8
  store ptr null, ptr %39, align 8, !tbaa !112
  br label %40

40:                                               ; preds = %32, %19
  %41 = load ptr, ptr %5, align 8, !tbaa !85
  %42 = getelementptr inbounds nuw %"class.tinyxml2::XMLNode", ptr %41, i32 0, i32 2
  store ptr %6, ptr %42, align 8, !tbaa !114
  %43 = load ptr, ptr %5, align 8, !tbaa !85
  store ptr %43, ptr %3, align 8
  br label %44

44:                                               ; preds = %40, %13
  %45 = load ptr, ptr %3, align 8
  ret ptr %45
}

; Function Attrs: mustprogress uwtable
define noundef ptr @_ZN8tinyxml210XMLElement13InsertNewTextEPKc(ptr noundef nonnull align 8 dereferenceable(120) %0, ptr noundef %1) #2 align 2 {
  %3 = alloca ptr, align 8
  %4 = alloca ptr, align 8
  %5 = alloca ptr, align 8
  store ptr %0, ptr %3, align 8, !tbaa !106
  store ptr %1, ptr %4, align 8, !tbaa !14
  %6 = load ptr, ptr %3, align 8
  call void @llvm.lifetime.start.p0(i64 8, ptr %5) #18
  %7 = getelementptr inbounds nuw %"class.tinyxml2::XMLNode", ptr %6, i32 0, i32 1
  %8 = load ptr, ptr %7, align 8, !tbaa !113
  %9 = load ptr, ptr %4, align 8, !tbaa !14
  %10 = call noundef ptr @_ZN8tinyxml211XMLDocument7NewTextEPKc(ptr noundef nonnull align 8 dereferenceable(776) %8, ptr noundef %9)
  store ptr %10, ptr %5, align 8, !tbaa !87
  %11 = load ptr, ptr %5, align 8, !tbaa !87
  %12 = call noundef ptr @_ZN8tinyxml27XMLNode14InsertEndChildEPS0_(ptr noundef nonnull align 8 dereferenceable(104) %6, ptr noundef %11)
  %13 = icmp ne ptr %12, null
  br i1 %13, label %14, label %16

14:                                               ; preds = %2
  %15 = load ptr, ptr %5, align 8, !tbaa !87
  br label %17

16:                                               ; preds = %2
  br label %17

17:                                               ; preds = %16, %14
  %18 = phi ptr [ %15, %14 ], [ null, %16 ]
  call void @llvm.lifetime.end.p0(i64 8, ptr %5) #18
  ret ptr %18
}