; Function Attrs: mustprogress uwtable
define noundef ptr @_ZN8tinyxml210XMLElement13InsertNewTextEPKc(ptr noundef nonnull align 8 dereferenceable(120) %0, ptr noundef readonly captures(none) %1) local_unnamed_addr #4 align 2 {
  %3 = getelementptr inbounds nuw i8, ptr %0, i64 8
  %4 = load ptr, ptr %3, align 8, !tbaa !71
  %5 = tail call noundef ptr @_ZN8tinyxml211XMLDocument7NewTextEPKc(ptr noundef nonnull align 8 dereferenceable(776) %4, ptr noundef %1)
  %6 = getelementptr inbounds nuw i8, ptr %5, i64 8
  %7 = load ptr, ptr %6, align 8, !tbaa !71
  %8 = load ptr, ptr %3, align 8, !tbaa !71
  %.not.i = icmp eq ptr %7, %8
  br i1 %.not.i, label %9, label %_ZN8tinyxml27XMLNode14InsertEndChildEPS0_.exit

9:                                                ; preds = %2
  %10 = getelementptr inbounds nuw i8, ptr %5, i64 16
  %11 = load ptr, ptr %10, align 8, !tbaa !72
  %.not.i.i = icmp eq ptr %11, null
  br i1 %.not.i.i, label %33, label %12

12:                                               ; preds = %9
  %13 = getelementptr inbounds nuw i8, ptr %11, i64 56
  %14 = load ptr, ptr %13, align 8, !tbaa !76
  %15 = icmp eq ptr %5, %14
  br i1 %15, label %16, label %19

16:                                               ; preds = %12
  %17 = getelementptr inbounds nuw i8, ptr %14, i64 80
  %18 = load ptr, ptr %17, align 8, !tbaa !77
  store ptr %18, ptr %13, align 8, !tbaa !76
  br label %19

19:                                               ; preds = %16, %12
  %20 = getelementptr inbounds nuw i8, ptr %11, i64 64
  %21 = load ptr, ptr %20, align 8, !tbaa !78
  %22 = icmp eq ptr %5, %21
  br i1 %22, label %23, label %26

23:                                               ; preds = %19
  %24 = getelementptr inbounds nuw i8, ptr %21, i64 72
  %25 = load ptr, ptr %24, align 8, !tbaa !79
  store ptr %25, ptr %20, align 8, !tbaa !78
  br label %26

26:                                               ; preds = %23, %19
  %27 = getelementptr inbounds nuw i8, ptr %5, i64 72
  %28 = load ptr, ptr %27, align 8, !tbaa !79
  %.not.i.i.i = icmp eq ptr %28, null
  %.phi.trans.insert.i.i.i = getelementptr inbounds nuw i8, ptr %5, i64 80
  %.pre.i.i.i = load ptr, ptr %.phi.trans.insert.i.i.i, align 8, !tbaa !77
  br i1 %.not.i.i.i, label %._crit_edge.i.i.i, label %29

29:                                               ; preds = %26
  %30 = getelementptr inbounds nuw i8, ptr %28, i64 80
  store ptr %.pre.i.i.i, ptr %30, align 8, !tbaa !77
  br label %._crit_edge.i.i.i

._crit_edge.i.i.i:                                ; preds = %29, %26
  %.not15.i.i.i = icmp eq ptr %.pre.i.i.i, null
  br i1 %.not15.i.i.i, label %_ZN8tinyxml27XMLNode6UnlinkEPS0_.exit.i.i, label %31

31:                                               ; preds = %._crit_edge.i.i.i
  %32 = getelementptr inbounds nuw i8, ptr %.pre.i.i.i, i64 72
  store ptr %28, ptr %32, align 8, !tbaa !79
  br label %_ZN8tinyxml27XMLNode6UnlinkEPS0_.exit.i.i

_ZN8tinyxml27XMLNode6UnlinkEPS0_.exit.i.i:        ; preds = %31, %._crit_edge.i.i.i
  tail call void @llvm.memset.p0.i64(ptr noundef nonnull align 8 dereferenceable(16) %27, i8 0, i64 16, i1 false)
  br label %_ZNK8tinyxml27XMLNode19InsertChildPreambleEPS0_.exit.i

33:                                               ; preds = %9
  %34 = getelementptr inbounds nuw i8, ptr %7, i64 260
  %35 = load i32, ptr %34, align 4, !tbaa !66
  %36 = icmp sgt i32 %35, 0
  br i1 %36, label %.lr.ph.i.i.i, label %_ZN8tinyxml211XMLDocument9MarkInUseEPKNS_7XMLNodeE.exit.i.i

.lr.ph.i.i.i:                                     ; preds = %33
  %37 = getelementptr inbounds nuw i8, ptr %7, i64 168
  %38 = load ptr, ptr %37, align 8, !tbaa !68
  %wide.trip.count.i.i.i = zext nneg i32 %35 to i64
  br label %40

39:                                               ; preds = %40
  %indvars.iv.next.i.i.i = add nuw nsw i64 %indvars.iv.i.i.i, 1
  %exitcond.not.i.i.i = icmp eq i64 %indvars.iv.next.i.i.i, %wide.trip.count.i.i.i
  br i1 %exitcond.not.i.i.i, label %_ZN8tinyxml211XMLDocument9MarkInUseEPKNS_7XMLNodeE.exit.i.i, label %40, !llvm.loop !80

40:                                               ; preds = %39, %.lr.ph.i.i.i
  %indvars.iv.i.i.i = phi i64 [ 0, %.lr.ph.i.i.i ], [ %indvars.iv.next.i.i.i, %39 ]
  %41 = getelementptr inbounds nuw ptr, ptr %38, i64 %indvars.iv.i.i.i
  %42 = load ptr, ptr %41, align 8, !tbaa !69
  %43 = icmp eq ptr %5, %42
  br i1 %43, label %44, label %39

44:                                               ; preds = %40
  %45 = getelementptr inbounds nuw ptr, ptr %38, i64 %indvars.iv.i.i.i
  %46 = getelementptr ptr, ptr %38, i64 %wide.trip.count.i.i.i
  %47 = getelementptr i8, ptr %46, i64 -8
  %48 = load ptr, ptr %47, align 8, !tbaa !69
  store ptr %48, ptr %45, align 8, !tbaa !69
  %49 = add nsw i32 %35, -1
  store i32 %49, ptr %34, align 4, !tbaa !66
  br label %_ZN8tinyxml211XMLDocument9MarkInUseEPKNS_7XMLNodeE.exit.i.i

_ZN8tinyxml211XMLDocument9MarkInUseEPKNS_7XMLNodeE.exit.i.i: ; preds = %39, %44, %33
  %50 = getelementptr inbounds nuw i8, ptr %5, i64 96
  %51 = load ptr, ptr %50, align 8, !tbaa !65
  %52 = load ptr, ptr %51, align 8, !tbaa !63
  %53 = getelementptr inbounds nuw i8, ptr %52, i64 40
  %54 = load ptr, ptr %53, align 8
  tail call void %54(ptr noundef nonnull align 8 dereferenceable(8) %51)
  br label %_ZNK8tinyxml27XMLNode19InsertChildPreambleEPS0_.exit.i

_ZNK8tinyxml27XMLNode19InsertChildPreambleEPS0_.exit.i: ; preds = %_ZN8tinyxml211XMLDocument9MarkInUseEPKNS_7XMLNodeE.exit.i.i, %_ZN8tinyxml27XMLNode6UnlinkEPS0_.exit.i.i
  %55 = getelementptr inbounds nuw i8, ptr %0, i64 64
  %56 = load ptr, ptr %55, align 8, !tbaa !78
  %.not14.i = icmp eq ptr %56, null
  br i1 %.not14.i, label %59, label %57

57:                                               ; preds = %_ZNK8tinyxml27XMLNode19InsertChildPreambleEPS0_.exit.i
  %58 = getelementptr inbounds nuw i8, ptr %56, i64 80
  store ptr %5, ptr %58, align 8, !tbaa !77
  br label %61

59:                                               ; preds = %_ZNK8tinyxml27XMLNode19InsertChildPreambleEPS0_.exit.i
  %60 = getelementptr inbounds nuw i8, ptr %0, i64 56
  store ptr %5, ptr %60, align 8, !tbaa !76
  br label %61

61:                                               ; preds = %59, %57
  store ptr %5, ptr %55, align 8, !tbaa !78
  %62 = getelementptr inbounds nuw i8, ptr %5, i64 72
  store ptr %56, ptr %62, align 8, !tbaa !79
  %63 = getelementptr inbounds nuw i8, ptr %5, i64 80
  store ptr null, ptr %63, align 8, !tbaa !77
  store ptr %0, ptr %10, align 8, !tbaa !72
  br label %_ZN8tinyxml27XMLNode14InsertEndChildEPS0_.exit

_ZN8tinyxml27XMLNode14InsertEndChildEPS0_.exit:   ; preds = %2, %61
  %.0.i = phi ptr [ %5, %61 ], [ null, %2 ]
  ret ptr %.0.i
}